target datalayout = "e-m:e-p270:32:32-p271:32:32-p272:64:64-i64:64-i128:128-f80:128-n8:16:32:64-S128"
target triple = "x86_64-pc-linux-gnu"

@.str = private unnamed_addr constant [8 x i8] c"failed\0A\00", align 1

; Function Attrs: mustprogress norecurse uwtable
define dso_local noundef i32 @main(i32 noundef %0, ptr noundef %1) #0 {
  %3 = alloca i32, align 4
  %4 = alloca i32, align 4
  %5 = alloca ptr, align 8
  store i32 0, ptr %3, align 4
  store i32 %0, ptr %4, align 4
  store ptr %1, ptr %5, align 8
  call void @_ZN32pxrInternal_v0_24__pxrReserved__24ArchSetFatalStackLoggingEb(i1 noundef zeroext true)
  call void @_ZN32pxrInternal_v0_24__pxrReserved__34TfInstallTerminateAndCrashHandlersEv()
  %6 = call i32 @raise(i32 noundef 8) #4
  %7 = call i32 (ptr, ...) @printf(ptr noundef @.str)
  call void @exit(i32 noundef 0) #5
  unreachable
}

declare void @_ZN32pxrInternal_v0_24__pxrReserved__24ArchSetFatalStackLoggingEb(i1 noundef zeroext) #1

declare void @_ZN32pxrInternal_v0_24__pxrReserved__34TfInstallTerminateAndCrashHandlersEv() #1

; Function Attrs: nounwind
declare i32 @raise(i32 noundef) #2

declare i32 @printf(ptr noundef, ...) #1

; Function Attrs: noreturn nounwind
declare void @exit(i32 noundef) #3


!llvm.module.flags = !{!0, !1, !2, !3, !4}

!0 = !{i32 1, !"wchar_size", i32 4}
!1 = !{i32 8, !"PIC Level", i32 2}
!2 = !{i32 7, !"PIE Level", i32 2}
!3 = !{i32 7, !"uwtable", i32 2}
!4 = !{i32 7, !"frame-pointer", i32 2}
