; ModuleID = 'bench/openusd/original/SIGFPE.cpp.ll'
source_filename = "bench/openusd/original/SIGFPE.cpp.ll"
target datalayout = "e-m:e-p270:32:32-p271:32:32-p272:64:64-i64:64-i128:128-f80:128-n8:16:32:64-S128"
target triple = "x86_64-pc-linux-gnu"

@str = private unnamed_addr constant [7 x i8] c"failed\00", align 1

; Function Attrs: mustprogress norecurse noreturn uwtable
define dso_local noundef i32 @main(i32 noundef %0, ptr noundef readnone captures(none) %1) local_unnamed_addr #0 {
  tail call void @_ZN32pxrInternal_v0_24__pxrReserved__24ArchSetFatalStackLoggingEb(i1 noundef zeroext true)
  tail call void @_ZN32pxrInternal_v0_24__pxrReserved__34TfInstallTerminateAndCrashHandlersEv()
  %3 = tail call i32 @raise(i32 noundef 8) #5
  %puts = tail call i32 @puts(ptr nonnull dereferenceable(1) @str)
  tail call void @exit(i32 noundef 0) #6
  unreachable
}

declare void @_ZN32pxrInternal_v0_24__pxrReserved__24ArchSetFatalStackLoggingEb(i1 noundef zeroext) local_unnamed_addr #1

declare void @_ZN32pxrInternal_v0_24__pxrReserved__34TfInstallTerminateAndCrashHandlersEv() local_unnamed_addr #1

; Function Attrs: nounwind
declare i32 @raise(i32 noundef) local_unnamed_addr #2

; Function Attrs: nofree noreturn nounwind
declare void @exit(i32 noundef) local_unnamed_addr #3

; Function Attrs: nofree nounwind
declare noundef i32 @puts(ptr noundef readonly captures(none)) local_unnamed_addr #4


!llvm.module.flags = !{!0, !1, !2, !3, !4}

!0 = !{i32 1, !"wchar_size", i32 4}
!1 = !{i32 8, !"PIC Level", i32 2}
!2 = !{i32 7, !"PIE Level", i32 2}
!3 = !{i32 7, !"uwtable", i32 2}
!4 = !{i32 7, !"frame-pointer", i32 2}
